target datalayout = "e-m:e-p270:32:32-p271:32:32-p272:64:64-i64:64-i128:128-f80:128-n8:16:32:64-S128"
target triple = "x86_64-pc-linux-gnu"

; Function Attrs: nounwind uwtable
define i32 @evtag_unmarshal(ptr noundef %0, ptr noundef %1, ptr noundef %2) #0 {
  %4 = alloca i32, align 4
  %5 = alloca ptr, align 8
  %6 = alloca ptr, align 8
  %7 = alloca ptr, align 8
  %8 = alloca i32, align 4
  %9 = alloca i32, align 4
  store ptr %0, ptr %5, align 8
  store ptr %1, ptr %6, align 8
  store ptr %2, ptr %7, align 8
  call void @llvm.lifetime.start.p0(i64 4, ptr %8) #6
  %10 = load ptr, ptr %5, align 8
  %11 = load ptr, ptr %6, align 8
  %12 = call i32 @evtag_unmarshal_header(ptr noundef %10, ptr noundef %11)
  store i32 %12, ptr %8, align 4
  %13 = icmp eq i32 %12, -1
  br i1 %13, label %14, label %15

14:                                               ; preds = %3
  store i32 -1, ptr %4, align 4
  store i32 1, ptr %9, align 4
  br label %32

15:                                               ; preds = %3
  %16 = load ptr, ptr %7, align 8
  %17 = load ptr, ptr %5, align 8
  %18 = load i32, ptr %8, align 4
  %19 = sext i32 %18 to i64
  %20 = call ptr @evbuffer_pullup(ptr noundef %17, i64 noundef %19)
  %21 = load i32, ptr %8, align 4
  %22 = sext i32 %21 to i64
  %23 = call i32 @evbuffer_add(ptr noundef %16, ptr noundef %20, i64 noundef %22)
  %24 = icmp eq i32 %23, -1
  br i1 %24, label %25, label %26

25:                                               ; preds = %15
  store i32 -1, ptr %4, align 4
  store i32 1, ptr %9, align 4
  br label %32

26:                                               ; preds = %15
  %27 = load ptr, ptr %5, align 8
  %28 = load i32, ptr %8, align 4
  %29 = sext i32 %28 to i64
  %30 = call i32 @evbuffer_drain(ptr noundef %27, i64 noundef %29)
  %31 = load i32, ptr %8, align 4
  store i32 %31, ptr %4, align 4
  store i32 1, ptr %9, align 4
  br label %32

32:                                               ; preds = %26, %25, %14
  call void @llvm.lifetime.end.p0(i64 4, ptr %8) #6
  %33 = load i32, ptr %4, align 4
  ret i32 %33
}