; Function Attrs: nounwind uwtable
define i32 @evtag_unmarshal(ptr noundef %0, ptr noundef captures(address_is_null) %1, ptr noundef %2) local_unnamed_addr #1 {
  %4 = tail call i32 @evtag_unmarshal_header(ptr noundef %0, ptr noundef %1)
  %5 = icmp eq i32 %4, -1
  br i1 %5, label %13, label %6

6:                                                ; preds = %3
  %7 = sext i32 %4 to i64
  %8 = tail call ptr @evbuffer_pullup(ptr noundef %0, i64 noundef %7) #7
  %9 = tail call i32 @evbuffer_add(ptr noundef %2, ptr noundef %8, i64 noundef %7) #7
  %10 = icmp eq i32 %9, -1
  br i1 %10, label %13, label %11

11:                                               ; preds = %6
  %12 = tail call i32 @evbuffer_drain(ptr noundef %0, i64 noundef %7) #7
  br label %13

13:                                               ; preds = %6, %3, %11
  %.0 = phi i32 [ %4, %11 ], [ -1, %3 ], [ -1, %6 ]
  ret i32 %.0
}